; Function Attrs: null_pointer_is_valid sspstrong uwtable
define internal void @output_field_check(ptr noundef %0, ptr noundef captures(none) %1) #0 {
  %3 = alloca ptr, align 8
  call void @llvm.lifetime.start.p0(i64 8, ptr nonnull %3) #21
  %4 = call zeroext i1 @dfilter_compile_full(ptr noundef %0, ptr noundef nonnull %3, ptr noundef null, i32 noundef 6, ptr noundef nonnull @__func__.output_field_check)
  br i1 %4, label %5, label %7

5:                                                ; preds = %2
  %6 = load ptr, ptr %3, align 8
  call void @dfilter_free(ptr noundef %6)
  br label %10

7:                                                ; preds = %2
  %8 = load ptr, ptr %1, align 8
  %9 = call ptr @g_slist_prepend(ptr noundef %8, ptr noundef %0)
  store ptr %9, ptr %1, align 8
  br label %10

10:                                               ; preds = %7, %5
  call void @llvm.lifetime.end.p0(i64 8, ptr nonnull %3) #21
  ret void
}